; Function Attrs: mustprogress uwtable
define dso_local void @_ZN4Luau7CodeGen3A6418AssemblyBuilderA647placeEREPKcNS1_11RegisterA64ES5_S5_hi(ptr noundef nonnull align 8 dereferenceable(176) %0, ptr noundef %1, i8 %2, i8 %3, i8 %4, i8 noundef zeroext %5, i32 noundef %6) local_unnamed_addr #0 align 2 {
  %8 = getelementptr inbounds nuw i8, ptr %0, i64 80
  %9 = load i8, ptr %8, align 8, !tbaa !14, !range !46, !noundef !47
  %10 = trunc nuw i8 %9 to i1
  br i1 %10, label %11, label %12

11:                                               ; preds = %7
  tail call void @_ZN4Luau7CodeGen3A6418AssemblyBuilderA643logEPKcNS1_11RegisterA64ES5_S5_i(ptr noundef nonnull align 8 dereferenceable(176) %0, ptr noundef %1, i8 %2, i8 %3, i8 %4, i32 noundef %6)
  br label %12

12:                                               ; preds = %11, %7
  %13 = and i8 %2, 7
  %14 = icmp eq i8 %13, 2
  %15 = lshr i8 %2, 3
  %16 = zext nneg i8 %15 to i32
  %17 = lshr i8 %3, 3
  %18 = zext nneg i8 %17 to i32
  %19 = shl nuw nsw i32 %18, 5
  %20 = or disjoint i32 %19, %16
  %21 = shl i32 %6, 10
  %22 = or disjoint i32 %20, %21
  %23 = lshr i8 %4, 3
  %24 = zext nneg i8 %23 to i32
  %25 = shl nuw nsw i32 %24, 16
  %26 = zext i8 %5 to i32
  %27 = shl nuw i32 %26, 24
  %28 = select i1 %14, i32 -2145370112, i32 2113536
  %29 = or disjoint i32 %28, %25
  %30 = or i32 %22, %27
  %31 = or i32 %30, %29
  %32 = getelementptr inbounds nuw i8, ptr %0, i64 160
  %33 = load ptr, ptr %32, align 8, !tbaa !39
  %34 = getelementptr inbounds nuw i8, ptr %33, i64 4
  store ptr %34, ptr %32, align 8, !tbaa !39
  store i32 %31, ptr %33, align 4, !tbaa !48
  %35 = getelementptr inbounds nuw i8, ptr %0, i64 168
  %36 = load ptr, ptr %35, align 8, !tbaa !40
  %37 = icmp eq ptr %36, %34
  br i1 %37, label %38, label %_ZN4Luau7CodeGen3A6418AssemblyBuilderA646commitEv.exit

38:                                               ; preds = %12
  tail call void @_ZN4Luau7CodeGen3A6418AssemblyBuilderA646extendEv(ptr noundef nonnull align 8 dereferenceable(176) %0)
  br label %_ZN4Luau7CodeGen3A6418AssemblyBuilderA646commitEv.exit

_ZN4Luau7CodeGen3A6418AssemblyBuilderA646commitEv.exit: ; preds = %12, %38
  ret void
}